MPASM 5.77                    PROYECTO_3.ASM   11-27-2020  5:47:12         PAGE  1


LOC  OBJECT CODE     LINE SOURCE TEXT
  VALUE

                      00001 ; PIC16F887 Configuration Bit Settings
                      00002 
                      00003 #include "p16f887.inc"
                      00001         LIST
                      00002 
                      00003 ;==========================================================================
                      00004 ; Build date : Nov 22 2017
                      00005 ;  MPASM PIC16F887 processor include
                      00006 ; 
                      00007 ;  (c) Copyright 1999-2017 Microchip Technology, All rights reserved
                      00008 ;==========================================================================
                      00009 
                      00810         LIST
                      00004 
                      00005 ; CONFIG1
                      00006 ; __config 0xE0D4
2007   20D4           00007  __CONFIG _CONFIG1, _FOSC_INTRC_NOCLKOUT & _WDTE_OFF & _PWRTE_OFF & _MCLRE_OFF & _CP_OFF & _CPD_OFF & _B
                            OREN_OFF & _IESO_OFF & _FCMEN_OFF & _LVP_OFF
                      00008 ; CONFIG2
                      00009 ; __config 0xFFFF
2008   3FFF           00010  __CONFIG _CONFIG2, _BOR4V_BOR40V & _WRT_OFF
                      00011  
                      00012 
                      00013 ;                               VARIABLES
                      00014 ;*******************************************************************************
                      00015 GPR_VAR     UDATA
0000                  00016 TIEMPO_1    RES 1
0001                  00017 TIEMPO_2    RES 1
0002                  00018 W_TEMP      RES 1
0003                  00019 VAR_STATUS  RES 1
0004                  00020 BANDERA     RES 1
0005                  00021 SERVO1      RES 1
0006                  00022 SERVO2      RES 1
0007                  00023 MODO        RES 1
0008                  00024 TIEMPOO     RES 1
0009                  00025 SERVO2_EEPROM   RES 1
000A                  00026 SERVO1_EEPROM   RES 1
000B                  00027 NADA    RES 1
000C                  00028 COSO    RES 1
000D                  00029 CONTADOR    RES 1
000E                  00030 SERVO3      RES 1
000F                  00031 SERVO4      RES 1
0010                  00032 SENAL3      RES 1
0011                  00033 RECIBIDO    RES 1
0012                  00034 SERVO1_TX   RES 1
0013                  00035 SERVO2_TX   RES 1
0014                  00036 SERVO_T2    RES 1
0015                  00037 SERVO_T1    RES 1
0016                  00038 TX_B        RES 1       
0017                  00039 SERVO1_R    RES 1
0018                  00040 SERVO2_R    RES 1
0019                  00041 SERVO1_T    RES 1
001A                  00042 SERVO2_T    RES 1
MPASM 5.77                    PROYECTO_3.ASM   11-27-2020  5:47:12         PAGE  2


LOC  OBJECT CODE     LINE SOURCE TEXT
  VALUE

001B                  00043 SERVO11     RES 1
001C                  00044 SERVO12     RES 1
001D                  00045 SERVO21     RES 1
001E                  00046 SERVO22     RES 1
001F                  00047 CONTADOR2   RES 1
0020                  00048 CONTADOR3   RES 1
0021                  00049 SENAL       RES 1
0022                  00050 PRUEBA      RES 1
0023                  00051 PRUEBA2     RES 1
0024                  00052 BANDERA1    RES 1
0025                  00053 BANDERA2    RES 1
                      00054    
                      00055    
                      00056             
                      00057 ;                               INTERRUPCIONES
                      00058 ;*******************************************************************************
                      00059  
                      00060 RES_VECT  CODE    0x0000            ; processor reset vector
0000   2???           00061     GOTO    START                   ; go to beginning of program
                      00062 
                      00063 ISR_VECT    CODE    0x0004
                      00064 
0004                  00065 PUSH:
0004   138B           00066     BCF     INTCON, GIE
0005   00??           00067     MOVWF   W_TEMP
0006   0E03           00068     SWAPF   STATUS, W
0007   00??           00069     MOVWF   VAR_STATUS
                      00070 
0008                  00071 ISR:
0008   1B0C           00072     BTFSC   PIR1, ADIF
0009   2???           00073     CALL    COSO_ADC        ; CONVERSION
000A   190B           00074     BTFSC   INTCON, T0IF
000B   2???           00075     CALL    COSO_TMR0   
000C   1A8C           00076     BTFSC   PIR1, RCIF
000D   2???           00077     CALL    COSO_RX         ; RECIBIR DATOS
000E   1A0C           00078     BTFSC   PIR1, TXIF
000F   2???           00079     CALL    COSO_TX
                      00080     
0010                  00081 POP:
0010   0E??           00082     SWAPF   VAR_STATUS, W
0011   0083           00083     MOVWF   STATUS
0012   0E??           00084     SWAPF   W_TEMP, F
0013   0E??           00085     SWAPF   W_TEMP, W
0014   0009           00086     RETFIE
                      00087 
                      00088 ;                   SUB-RUTINAS DE LA INTERRUPCION 
                      00089 ;*******************************************************************************
                      00090    
0015                  00091 COSO_TX:
0015   1C00           00092     BTFSS   TX_B, 0
0016   2???           00093     GOTO    PRIMERO
0017   1800           00094     BTFSC   TX_B, 0
0018   2???           00095     GOTO    SEGUNDO
MPASM 5.77                    PROYECTO_3.ASM   11-27-2020  5:47:12         PAGE  3


LOC  OBJECT CODE     LINE SOURCE TEXT
  VALUE

0019                  00096 PRIMERO
0019   1880           00097     BTFSC   TX_B, 1
001A   2???           00098     GOTO    A1
001B   08??           00099     MOVFW   SERVO1
001C   3E30           00100     ADDLW   0x30
001D   0099           00101     MOVWF   TXREG
                      00102     ;MOVLW   0x30
                      00103     ;ADDWF   SERVO1, W
                      00104     ;MOVWF   TXREG
001E   1480           00105     BSF     TX_B, 1
001F   2???           00106     GOTO    TERMINARR
0020   0008           00107     RETURN
                      00108     
Warning[207]: Found label after column 1. (A1)
0021                  00109     A1
0021   302C           00110     MOVLW   .44
0022   0099           00111     MOVWF   TXREG
0023   1080           00112     BCF     TX_B, 1
0024   1400           00113     BSF     TX_B, 0
0025   2???           00114     GOTO    TERMINARR
0026   0008           00115     RETURN
                      00116     
0027                  00117 SEGUNDO
0027   1880           00118     BTFSC   TX_B, 1
0028   2???           00119     GOTO    A2
0029   3030           00120     MOVLW   0x30
002A   07??           00121     ADDWF   SERVO2, W
002B   0099           00122     MOVWF   TXREG
002C   1480           00123     BSF     TX_B, 1
002D   2???           00124     GOTO    TERMINARR
002E   0008           00125     RETURN
                      00126     
Warning[207]: Found label after column 1. (A2)
002F                  00127     A2
002F   300A           00128     MOVLW   .10
0030   0099           00129     MOVWF   TXREG
0031   1080           00130     BCF     TX_B, 1
0032   1000           00131     BCF     TX_B, 0
0033   2???           00132     GOTO    TERMINARR
0034   0008           00133     RETURN
                      00134 
Warning[207]: Found label after column 1. (TERMINARR)
0035                  00135     TERMINARR
                      00136  ;BANKSEL TRISA
                      00137  ;   BCF            PIE1, TXIE
                      00138  ;   BANKSEL PORTA
0035   0008           00139     RETURN
                      00140     
0036                  00141 COSO_RX:
                      00142     
0036   01??           00143     CLRF    BANDERA2
0037   0187           00144     CLRF    PORTC
0038   1087           00145     BCF     PORTC, RC1
MPASM 5.77                    PROYECTO_3.ASM   11-27-2020  5:47:12         PAGE  4


LOC  OBJECT CODE     LINE SOURCE TEXT
  VALUE

0039   1107           00146     BCF     PORTC, RC2
                      00147     
003A   3031           00148     MOVLW   0x31
003B   021A           00149     SUBWF   RCREG, W
003C   1903           00150     BTFSC   STATUS, Z
003D   1407           00151     BSF     PORTC, RC0
003E   1400           00152     BSF     BANDERA2, 0
                      00153     
003F   3032           00154     MOVLW   0x32
0040   021A           00155     SUBWF   RCREG, W
0041   1903           00156     BTFSC   STATUS, Z
0042   1587           00157     BSF     PORTC, RC3
0043   1480           00158     BSF     BANDERA2, 1
                      00159     
0044   3033           00160     MOVLW   0x33
0045   021A           00161     SUBWF   RCREG, W
0046   1903           00162     BTFSC   STATUS, Z
0047   1607           00163     BSF     PORTC, RC4
0048   1500           00164     BSF     BANDERA2, 2
                      00165     
0049   3034           00166     MOVLW   0x34
004A   021A           00167     SUBWF   RCREG, W
004B   1903           00168     BTFSC   STATUS, Z
004C   1687           00169     BSF     PORTC, RC5
004D   1580           00170     BSF     BANDERA2, 3
                      00171     
004E   0008           00172     RETURN
                      00173     
004F                  00174 COSO_TMR0:
                      00175     
004F   08??           00176     MOVFW   CONTADOR
0050   3C1E           00177     SUBLW   .30
0051   1D03           00178     BTFSS   STATUS, Z
0052   2???           00179     GOTO    BANDERAS
0053   01??           00180     CLRF    CONTADOR
                      00181    
                      00182     ;BSF            PORTB, RB0
0054   1486           00183     BSF     PORTB, RB1
0055   1506           00184     BSF     PORTB, RB2
                      00185     ;BSF            PORTB, RB3
0056   1606           00186     BSF     PORTB, RB4
                      00187     ;CALL    COSO_TX
                      00188     
Warning[207]: Found label after column 1. (BANDERAS)
0057                  00189     BANDERAS
                      00190     
Warning[207]: Found label after column 1. (COSO1)
0057                  00191     COSO1
                      00192     ;MOVFW   CONTADOR
                      00193     ;BTFSC   PORTB, RB7
                      00194     ;SUBLW   .10
                      00195     ;BTFSS   PORTB, RB7
                      00196     ;SUBLW   .2
MPASM 5.77                    PROYECTO_3.ASM   11-27-2020  5:47:12         PAGE  5


LOC  OBJECT CODE     LINE SOURCE TEXT
  VALUE

                      00197     ;BTFSC   STATUS, Z
                      00198     ;BCF    PORTB, RB1
                      00199     
0057   08??           00200     MOVFW   CONTADOR
Message[305]: Using default destination of 1 (file).
0058   02??           00201     SUBWF   SERVO2_T
                      00202     ;SUBLW   .7
0059   1903           00203     BTFSC   STATUS, Z
005A   1086           00204     BCF    PORTB, RB1
                      00205     
005B   08??           00206     MOVFW   CONTADOR
Message[305]: Using default destination of 1 (file).
005C   02??           00207     SUBWF   SERVO1_T
                      00208     ;SUBLW   .7
005D   1903           00209     BTFSC   STATUS, Z
005E   1106           00210     BCF    PORTB, RB2
                      00211     
005F   08??           00212     MOVFW   CONTADOR
0060   1B06           00213     BTFSC   PORTB, RB6
0061   3C0A           00214     SUBLW   .10
0062   1F06           00215     BTFSS   PORTB, RB6
0063   3C02           00216     SUBLW   .2
0064   1903           00217     BTFSC   STATUS, Z
0065   1206           00218     BCF    PORTB, RB4
                      00219     
0066   1F80           00220     BTFSS   CONTADOR2, 7
0067   2???           00221     GOTO    T
0068   0A??           00222     INCF    CONTADOR3, 1
0069   01??           00223     CLRF    CONTADOR2
                      00224     ;BTFSS   CONTADOR3, 5
                      00225    ;GOTO    T
                      00226     ;CLRF    CONTADOR3
006A   0A??           00227     INCF    SENAL, 1
                      00228     
Warning[207]: Found label after column 1. (T)
006B                  00229     T
006B   0A??           00230     INCF    CONTADOR2, 1
006C   0A??           00231     INCF    CONTADOR, 1
006D   110B           00232     BCF     INTCON, T0IF 
006E   0008           00233     RETURN
                      00234     
006F                  00235 COSO_ADC:
006F   1800           00236    BTFSC    BANDERA, 0
0070   2???           00237    GOTO     COSO2
                      00238    
0071   0E1E           00239    SWAPF    ADRESH, W
0072   00??           00240    MOVWF    SERVO_T2
0073   0C??           00241    RRF      SERVO_T2, 0
0074   3907           00242    ANDLW    b'00000111'
0075   3E02           00243    ADDLW    .2
0076   00??           00244    MOVWF    SERVO2
0077   1400           00245    BSF      BANDERA, 0
0078   151F           00246    BSF      ADCON0, 2
MPASM 5.77                    PROYECTO_3.ASM   11-27-2020  5:47:12         PAGE  6


LOC  OBJECT CODE     LINE SOURCE TEXT
  VALUE

                      00247    ;CALL            DELAY_2     
0079   2???           00248    GOTO     TERMINAR
                      00249    
Warning[207]: Found label after column 1. (COSO2)
007A                  00250    COSO2            ; CONVERSION EN EL CANAL AN1
007A   0E1E           00251    SWAPF    ADRESH, W
007B   00??           00252    MOVWF    SERVO_T1
007C   0C??           00253    RRF      SERVO_T1, 0
007D   3907           00254    ANDLW    b'00000111'
007E   3E02           00255    ADDLW    .2
007F   00??           00256    MOVWF    SERVO1        
0080   1000           00257    BCF      BANDERA, 0
0081   111F           00258    BCF      ADCON0, 2
                      00259    ;CALL            DELAY_2
                      00260    
Warning[207]: Found label after column 1. (TERMINAR)
0082                  00261    TERMINAR
0082   149F           00262    BSF      ADCON0, GO
0083   130C           00263    BCF      PIR1, ADIF      ;BANDERA TERMINAR CONVERSION
0084   0008           00264    RETURN
                      00265 ;                           PRINCIPAL 
                      00266 ;****************************************************************************
                      00267 MAIN_PROG   CODE
                      00268 
0000                  00269 START                       ; CONFIGURACIONES
0000   2???           00270    CALL     CONFIG_IO
0001   2???           00271    CALL     UGHHHHHH
0002   2???           00272    CALL     CONFIG_ADC
0003   2???           00273    CALL     CONFIG_INTERRUPT
0004   2???           00274    CALL     CONFIG_TMR0
0005   2???           00275    CALL     CONFIG_SERIAL
0006   1283 1303      00276    BANKSEL  PORTA
0008   2???           00277    GOTO     LOOP
                      00278    
0009                  00279 LOOP:
                      00280    ;MOVLW    0x2
                      00281    ;MOVWF    SERVO1
                      00282    ;MOVLW    0x4
                      00283    ;MOVWF    SERVO2
                      00284    ;MOVLW    0x8
                      00285    ;MOVWF    SERVO3
                      00286 
                      00287    
0009   1988           00288     BTFSC   PORTD, RD3
000A   2???           00289     CALL    INC_MODO
                      00290     
                      00291     ;BANKSEL TRISA
                      00292     ;BSF            PIE1, TXIE
                      00293     ;BANKSEL PORTA
                      00294         
000B   08??           00295     MOVFW   MODO
000C   3C01           00296     SUBLW   .1
000D   1903           00297     BTFSC   STATUS, Z
MPASM 5.77                    PROYECTO_3.ASM   11-27-2020  5:47:12         PAGE  7


LOC  OBJECT CODE     LINE SOURCE TEXT
  VALUE

000E   2???           00298     GOTO    MODO2
                      00299     
000F   08??           00300     MOVFW   MODO
0010   3C02           00301     SUBLW   .2
0011   1903           00302     BTFSC   STATUS, Z
0012   2???           00303     GOTO    MODO3
                      00304     
0013   08??           00305     MOVFW   MODO
0014   3C00           00306     SUBLW   .0
0015   1903           00307     BTFSC   STATUS, Z
0016   2???           00308     GOTO    MODO1
                      00309 
0017   2???           00310     GOTO    LOOP
                      00311     
0018                  00312 MODO3:
0018   1807           00313     BTFSC   PORTC, RC0
0019   2???           00314     GOTO    SE1
001A   1987           00315     BTFSC   PORTC, RC3
001B   2???           00316     GOTO    SE2
001C   1A07           00317     BTFSC   PORTC, RC4
001D   2???           00318     GOTO    SE3
001E   1A87           00319     BTFSC   PORTC, RC5
001F   2???           00320     GOTO    SE4
0020   2???           00321     GOTO    LOOP
                      00322     
0021                  00323 SE1
0021   1A80           00324     BTFSC   SENAL, 5
0022   3008           00325     MOVLW   .8
0023   1E80           00326     BTFSS   SENAL, 5
0024   3002           00327     MOVLW   .2
0025   00??           00328     MOVWF   SERVO1_T
                      00329     
0026   1A80           00330     BTFSC   SENAL, 5
0027   3008           00331     MOVLW   .8   
0028   1E80           00332     BTFSS   SENAL, 5
0029   3002           00333     MOVLW   .2
002A   00??           00334     MOVWF   SERVO2_T
002B   2???           00335     GOTO        LOOP 
                      00336     
002C                  00337 SE2
002C   1A00           00338     BTFSC   SENAL, 4
002D   3008           00339     MOVLW   .8
002E   1E80           00340     BTFSS   SENAL, 5
002F   3002           00341     MOVLW   .2
0030   00??           00342     MOVWF   SERVO1_T
                      00343     
0031   1A00           00344     BTFSC   SENAL, 4
0032   3002           00345     MOVLW   .2   
0033   1E80           00346     BTFSS   SENAL, 5
0034   3008           00347     MOVLW   .8
0035   00??           00348     MOVWF   SERVO2_T
0036   2???           00349     GOTO        LOOP 
                      00350     
MPASM 5.77                    PROYECTO_3.ASM   11-27-2020  5:47:12         PAGE  8


LOC  OBJECT CODE     LINE SOURCE TEXT
  VALUE

0037                  00351 SE3
0037   1900           00352     BTFSC   SENAL, 2
0038   3004           00353     MOVLW   .4
0039   1E80           00354     BTFSS   SENAL, 5
003A   300A           00355     MOVLW   .10
003B   00??           00356     MOVWF   SERVO1_T
                      00357     
003C   1900           00358     BTFSC   SENAL, 2
003D   300A           00359     MOVLW   .10  
003E   1E80           00360     BTFSS   SENAL, 5
003F   3004           00361     MOVLW   .4
0040   00??           00362     MOVWF   SERVO2_T
0041   2???           00363     GOTO        LOOP 
                      00364     
0042                  00365 SE4
0042   1A00           00366     BTFSC   SENAL, 4
0043   3004           00367     MOVLW   .4
0044   1E00           00368     BTFSS   SENAL, 4
0045   3002           00369     MOVLW   .2
0046   00??           00370     MOVWF   SERVO1_T
                      00371     
0047   1A00           00372     BTFSC   SENAL, 4
0048   3004           00373     MOVLW   .4
0049   1E00           00374     BTFSS   SENAL, 4
004A   3002           00375     MOVLW   .2
004B   00??           00376     MOVWF   SERVO2_T
004C   2???           00377     GOTO        LOOP 
                      00378 
004D                  00379 MODO2:
004D   2???           00380     CALL    LEER
004E   08??           00381     MOVFW   SERVO1_EEPROM
004F   00??           00382     MOVWF   SERVO1_T
                      00383     
0050   08??           00384     MOVFW   SERVO2_EEPROM
0051   00??           00385     MOVWF   SERVO2_T
0052   2???           00386     GOTO    LOOP
                      00387     
                      00388     
0053                  00389 MODO1:
0053   149F           00390     BSF     ADCON0, GO
                      00391     
                      00392     
0054   08??           00393     MOVFW   SERVO1
0055   00??           00394     MOVWF   SERVO1_T
0056   08??           00395     MOVFW   SERVO2
0057   00??           00396     MOVWF   SERVO2_T
                      00397 
0058   1E08           00398     BTFSS   PORTD, RD4
0059   2???           00399     GOTO    LOOP
                      00400     
005A   2???           00401     CALL    ESCRITURA
                      00402     
005B   2???           00403     GOTO    LOOP
MPASM 5.77                    PROYECTO_3.ASM   11-27-2020  5:47:12         PAGE  9


LOC  OBJECT CODE     LINE SOURCE TEXT
  VALUE

                      00404     
                      00405 ;**************************** SUBRUTINAS ***************************************
                      00406     
005C                  00407 LEER:
005C   1283 1303      00408     BANKSEL INTCON
005E   138B           00409     BCF     INTCON, GIE
005F   1283 1703      00410     BANKSEL EEADR
0061   3000           00411     MOVLW   .0
Message[302]: Register in operand not in bank 0.  Ensure that bank bits are correct.
0062   008D           00412     MOVWF   EEADR
                      00413     
0063   1683 1703      00414     BANKSEL EECON1
Message[302]: Register in operand not in bank 0.  Ensure that bank bits are correct.
0065   138C           00415     BCF     EECON1, EEPGD
Message[302]: Register in operand not in bank 0.  Ensure that bank bits are correct.
0066   140C           00416     BSF     EECON1, RD
                      00417     
0067   1283 1703      00418     BANKSEL EEDATA
Message[302]: Register in operand not in bank 0.  Ensure that bank bits are correct.
0069   080C           00419     MOVFW   EEDATA
006A   1283 1303      00420     BANKSEL PORTA
006C   00??           00421     MOVWF   SERVO1_EEPROM
006D   178B           00422     BSF     INTCON, GIE
                      00423     
006E                  00424 LEER2
006E   1283 1303      00425     BANKSEL INTCON
0070   138B           00426     BCF     INTCON, GIE
0071   1283 1703      00427     BANKSEL EEADR
0073   3000           00428     MOVLW   .0
Message[302]: Register in operand not in bank 0.  Ensure that bank bits are correct.
0074   008D           00429     MOVWF   EEADR
                      00430     
0075   1683 1703      00431     BANKSEL EECON1
Message[302]: Register in operand not in bank 0.  Ensure that bank bits are correct.
0077   138C           00432     BCF     EECON1, EEPGD
Message[302]: Register in operand not in bank 0.  Ensure that bank bits are correct.
0078   140C           00433     BSF     EECON1, RD
                      00434     
0079   1283 1703      00435     BANKSEL EEDATA
Message[302]: Register in operand not in bank 0.  Ensure that bank bits are correct.
007B   080C           00436     MOVFW   EEDATA
007C   1283 1303      00437     BANKSEL PORTA
007E   00??           00438     MOVWF   SERVO2_EEPROM
007F   178B           00439     BSF     INTCON, GIE
0080   0008           00440     RETURN
                      00441        
                      00442     
0081                  00443 ESCRITURA:
0081   1A08           00444     BTFSC   PORTD, RD4
0082   2???           00445     GOTO    ESCRITURA
0083   1283 1703      00446     BANKSEL EEADR
0085   3000           00447     MOVLW   .0
Message[302]: Register in operand not in bank 0.  Ensure that bank bits are correct.
MPASM 5.77                    PROYECTO_3.ASM   11-27-2020  5:47:12         PAGE 10


LOC  OBJECT CODE     LINE SOURCE TEXT
  VALUE

0086   008D           00448     MOVWF   EEADR
0087   1283 1703      00449     BANKSEL EEDATA
0089   1B06           00450     BTFSC   PORTB, RB6
008A   3002           00451     MOVLW   .2
008B   1F06           00452     BTFSS   PORTB, RB6
008C   300A           00453     MOVLW   .10
Message[302]: Register in operand not in bank 0.  Ensure that bank bits are correct.
008D   008C           00454     MOVWF   EEDATA
                      00455     
008E   1683 1703      00456     BANKSEL EECON1
Message[302]: Register in operand not in bank 0.  Ensure that bank bits are correct.
0090   138C           00457     BCF     EECON1, EEPGD
Message[302]: Register in operand not in bank 0.  Ensure that bank bits are correct.
0091   150C           00458     BSF     EECON1, WREN
                      00459     
0092   138B           00460     BCF     INTCON, GIE
                      00461     
0093   3055           00462     MOVLW   0x55
Message[302]: Register in operand not in bank 0.  Ensure that bank bits are correct.
0094   008D           00463     MOVWF   EECON2
0095   30AA           00464     MOVLW   0xAA
Message[302]: Register in operand not in bank 0.  Ensure that bank bits are correct.
0096   008D           00465     MOVWF   EECON2
Message[302]: Register in operand not in bank 0.  Ensure that bank bits are correct.
0097   148C           00466     BSF     EECON1, WR
                      00467     
0098   178B           00468     BSF     INTCON, GIE
Message[302]: Register in operand not in bank 0.  Ensure that bank bits are correct.
0099   110C           00469     BCF     EECON1, WREN
                      00470     
009A   1283 1303      00471     BANKSEL PORTA
009C   0008           00472     RETURN
                      00473     
009D                  00474 INC_MODO
009D   1988           00475     BTFSC   PORTD, RD3
009E   2???           00476     GOTO    INC_MODO
Message[305]: Using default destination of 1 (file).
009F   0A??           00477     INCF    MODO
                      00478     
00A0   30FA           00479     MOVLW   .250
00A1   00??           00480     MOVWF   TIEMPOO
Warning[207]: Found label after column 1. (AA)
00A2                  00481     AA
00A2   0B??           00482     DECFSZ  TIEMPOO, F
00A3   2???           00483     GOTO    AA
                      00484     
00A4   30FA           00485     MOVLW   .250
00A5   00??           00486     MOVWF   TIEMPOO
Warning[207]: Found label after column 1. (AA2)
00A6                  00487     AA2
00A6   0B??           00488     DECFSZ  TIEMPOO, F
00A7   2???           00489     GOTO    AA2
                      00490     
MPASM 5.77                    PROYECTO_3.ASM   11-27-2020  5:47:12         PAGE 11


LOC  OBJECT CODE     LINE SOURCE TEXT
  VALUE

00A8   08??           00491     MOVFW   MODO
00A9   3C03           00492     SUBLW   .3
00AA   1D03           00493     BTFSS   STATUS, Z
00AB   0008           00494     RETURN
00AC   01??           00495     CLRF    MODO
00AD   0186           00496     CLRF    PORTB
00AE   0008           00497     RETURN
                      00498 ;                               CONFIGURACIONES
                      00499 ;*******************************************************************************
00AF                  00500 UGHHHHHH:
00AF   1683           00501     BSF STATUS,RP0
00B0   30BB           00502     MOVLW   .187
Message[302]: Register in operand not in bank 0.  Ensure that bank bits are correct.
00B1   0092           00503     MOVWF   PR2
00B2   1283           00504     BCF     STATUS,RP0
00B3   309D           00505     MOVLW   0x9d
00B4   0095           00506     MOVWF   CCPR1L
00B5   1397           00507     BCF     CCP1CON,7
00B6   1317           00508     BCF     CCP1CON,6
00B7   1297           00509     BCF     CCP1CON,5 
00B8   1217           00510     BCF     CCP1CON,4
00B9   1597           00511     BSF     CCP1CON,3
00BA   1517           00512     BSF     CCP1CON,2
00BB   1097           00513     BCF     CCP1CON,1
00BC   1017           00514     BCF     CCP1CON,0
                      00515 
00BD   3020           00516     MOVLW   0x20
00BE   009B           00517     MOVWF   CCPR2L
00BF   169D           00518     BSF     CCP2CON,5
00C0   121D           00519     BCF     CCP2CON,4
00C1   159D           00520     BSF     CCP2CON,3   
00C2   151D           00521     BSF     CCP2CON,2
00C3   149D           00522     BSF     CCP2CON,1
00C4   141D           00523     BSF     CCP2CON,0
                      00524         
00C5   1683 1303      00525     BANKSEL OPTION_REG
00C7   0064           00526     CLRWDT
00C8   3057           00527     MOVLW   b'01010111'
Message[302]: Register in operand not in bank 0.  Ensure that bank bits are correct.
00C9   0081           00528     MOVWF   OPTION_REG  
00CA   1283 1303      00529     BANKSEL PORTA
00CC   30FF           00530     MOVLW   .255
00CD   0092           00531     MOVWF   T2CON
00CE   0008           00532     RETURN
                      00533     
Warning[207]: Found label after column 1. (CONFIG_OSC)
00CF                  00534    CONFIG_OSC:          ; CONFIGURACION DEL RELOJ
00CF   1683 1303      00535    BANKSEL  OSCCON
00D1   3061           00536    MOVLW    B'01100001'
Message[302]: Register in operand not in bank 0.  Ensure that bank bits are correct.
00D2   080F           00537    MOVFW    OSCCON
00D3   0008           00538    RETURN
                      00539 
MPASM 5.77                    PROYECTO_3.ASM   11-27-2020  5:47:12         PAGE 12


LOC  OBJECT CODE     LINE SOURCE TEXT
  VALUE

00D4                  00540 CONFIG_TMR0:
00D4   1683 1303      00541     BANKSEL OPTION_REG
Message[302]: Register in operand not in bank 0.  Ensure that bank bits are correct.
00D6   1281           00542     BCF     OPTION_REG, T0CS
Message[302]: Register in operand not in bank 0.  Ensure that bank bits are correct.
00D7   1581           00543     BSF     OPTION_REG, PSA
Message[302]: Register in operand not in bank 0.  Ensure that bank bits are correct.
00D8   1101           00544     BCF     OPTION_REG, PS2
Message[302]: Register in operand not in bank 0.  Ensure that bank bits are correct.
00D9   1081           00545     BCF     OPTION_REG, PS1
Message[302]: Register in operand not in bank 0.  Ensure that bank bits are correct.
00DA   1001           00546     BCF     OPTION_REG, PS0
                      00547     
00DB   1283 1303      00548     BANKSEL PORTA
00DD   309C           00549     MOVLW   .156
00DE   0081           00550     MOVWF   TMR0
00DF   110B           00551     BCF     INTCON, T0IF
00E0   0008           00552     RETURN
                      00553     
00E1                  00554 CONFIG_IO:
00E1   1683 1703      00555    BANKSEL  ANSEL
Message[302]: Register in operand not in bank 0.  Ensure that bank bits are correct.
00E3   0188           00556    CLRF     ANSEL
Message[302]: Register in operand not in bank 0.  Ensure that bank bits are correct.
00E4   1408           00557    BSF      ANSEL, 0    ; CONFIGURAR ANSEL PARA EL CANAL AN0 Y AN1
Message[302]: Register in operand not in bank 0.  Ensure that bank bits are correct.
00E5   1488           00558    BSF      ANSEL, 1
Message[302]: Register in operand not in bank 0.  Ensure that bank bits are correct.
00E6   0189           00559    CLRF     ANSELH
00E7   1683 1303      00560    BANKSEL  TRISA
Message[302]: Register in operand not in bank 0.  Ensure that bank bits are correct.
00E9   0185           00561    CLRF     TRISA
Message[305]: Using default destination of 1 (file).
Message[302]: Register in operand not in bank 0.  Ensure that bank bits are correct.
00EA   0985           00562    COMF     TRISA       ; PONER COMO INPUT EL PUERTO A
Message[302]: Register in operand not in bank 0.  Ensure that bank bits are correct.
00EB   0187           00563    CLRF     TRISC       ; COLOCAR PUERTOS COMO SALIDAS
Message[302]: Register in operand not in bank 0.  Ensure that bank bits are correct.
00EC   0188           00564    CLRF     TRISD
Message[305]: Using default destination of 1 (file).
Message[302]: Register in operand not in bank 0.  Ensure that bank bits are correct.
00ED   0988           00565    COMF     TRISD
Message[302]: Register in operand not in bank 0.  Ensure that bank bits are correct.
00EE   0186           00566    CLRF     TRISB
Message[302]: Register in operand not in bank 0.  Ensure that bank bits are correct.
00EF   1706           00567    BSF      TRISB, 6
Message[302]: Register in operand not in bank 0.  Ensure that bank bits are correct.
00F0   1786           00568    BSF      TRISB, 7
00F1   1283 1303      00569    BANKSEL  PORTD
00F3   0186           00570    CLRF     PORTB
00F4   0185           00571    CLRF     PORTA
00F5   0187           00572    CLRF     PORTC
00F6   0188           00573    CLRF     PORTD
MPASM 5.77                    PROYECTO_3.ASM   11-27-2020  5:47:12         PAGE 13


LOC  OBJECT CODE     LINE SOURCE TEXT
  VALUE

00F7   01??           00574    CLRF     MODO
00F8   01??           00575    CLRF     CONTADOR
00F9   3002           00576    MOVLW    0x2
00FA   00??           00577    MOVWF    SERVO1
00FB   3002           00578    MOVLW    0x2
00FC   00??           00579    MOVWF    SERVO2
00FD   3002           00580    MOVLW    0x2
00FE   00??           00581    MOVWF    SERVO3
00FF   0008           00582    RETURN
                      00583    
0100                  00584 CONFIG_ADC:                 ; CONFIGURACION ADC
0100   1683 1303      00585    BANKSEL  ADCON1
Message[302]: Register in operand not in bank 0.  Ensure that bank bits are correct.
0102   019F           00586    CLRF     ADCON1
0103   1283 1303      00587    BANKSEL  ADCON0
0105   3087           00588    MOVLW    B'10000111'     ; CANAL INICIAL AN1
0106   009F           00589    MOVWF    ADCON0
0107   0008           00590    RETURN
                      00591     
0108                  00592 CONFIG_INTERRUPT:
0108   1683 1303      00593     BANKSEL TRISA
Message[302]: Register in operand not in bank 0.  Ensure that bank bits are correct.
010A   170C           00594     BSF     PIE1, ADIE
010B   170B           00595     BSF     INTCON, PEIE
                      00596     
Message[302]: Register in operand not in bank 0.  Ensure that bank bits are correct.
010C   168C           00597     BSF     PIE1, RCIE
Message[302]: Register in operand not in bank 0.  Ensure that bank bits are correct.
010D   160C           00598     BSF     PIE1, TXIE
010E   168B           00599     BSF     INTCON, T0IE
010F   170B           00600     BSF     INTCON, PEIE
                      00601     
0110   1283 1303      00602     BANKSEL PORTA
0112   178B           00603     BSF     INTCON, GIE
                      00604     
0113   110B           00605     BCF     INTCON, T0IF
0114   0008           00606     RETURN
                      00607     
                      00608   
0115                  00609 CONFIG_SERIAL
0115   1683 1303      00610     BANKSEL TXSTA           ; CONFIGURACION DEL TX
Message[302]: Register in operand not in bank 0.  Ensure that bank bits are correct.
0117   1218           00611     BCF     TXSTA, SYNC
Message[302]: Register in operand not in bank 0.  Ensure that bank bits are correct.
0118   1698           00612     BSF     TXSTA, TXEN
Message[302]: Register in operand not in bank 0.  Ensure that bank bits are correct.
0119   1518           00613     BSF     TXSTA, BRGH
Message[302]: Register in operand not in bank 0.  Ensure that bank bits are correct.
011A   1318           00614     BCF     TXSTA, TX9
                      00615     
011B   1683 1703      00616     BANKSEL BAUDCTL         ; CONFIGURACION DE LA VELOCIDAD
Message[302]: Register in operand not in bank 0.  Ensure that bank bits are correct.
011D   1187           00617     BCF     BAUDCTL, BRG16
MPASM 5.77                    PROYECTO_3.ASM   11-27-2020  5:47:12         PAGE 14


LOC  OBJECT CODE     LINE SOURCE TEXT
  VALUE

011E   1683 1303      00618     BANKSEL SPBRG
0120   3019           00619     MOVLW   .25
Message[302]: Register in operand not in bank 0.  Ensure that bank bits are correct.
0121   0099           00620     MOVWF   SPBRG
Message[302]: Register in operand not in bank 0.  Ensure that bank bits are correct.
0122   019A           00621     CLRF    SPBRGH
0123   1283 1303      00622     BANKSEL RCSTA
0125   1798           00623     BSF     RCSTA, SPEN     ; CONFIGURACION DEL RX
0126   1318           00624     BCF     RCSTA, RX9
0127   1618           00625     BSF     RCSTA, CREN
0128   1283 1303      00626     BANKSEL PORTA
012A   0008           00627     RETURN
                      00628 
                      00629     
Warning[207]: Found label after column 1. (DELAY_1)
012B                  00630     DELAY_1                 ; DELAYS
012B   30FA           00631     MOVLW   .250
012C   00??           00632     MOVWF   TIEMPO_1
Warning[207]: Found label after column 1. (CONFIG1)
012D                  00633     CONFIG1
012D   2???           00634     CALL    DELAY_2
012E   0B??           00635     DECFSZ  TIEMPO_1, F
012F   2???           00636     GOTO    CONFIG1
0130   0008           00637     RETURN
                      00638 
Warning[207]: Found label after column 1. (DELAY_2)
0131                  00639     DELAY_2
0131   30FA           00640     MOVLW   .250
0132   00??           00641     MOVWF    TIEMPO_2
Warning[207]: Found label after column 1. (CONFIG2)
0133                  00642     CONFIG2
0133   0B??           00643     DECFSZ  TIEMPO_2, F
0134   2???           00644     GOTO    CONFIG2
0135   0008           00645     RETURN
                      00646 
                      00647     
Warning[205]: Found directive in column 1. (END)
20D4 3FFF             00648 END
MPASM 5.77                    PROYECTO_3.ASM   11-27-2020  5:47:12         PAGE 15


SYMBOL TABLE
  LABEL                             VALUE 

A1                                00000021
A2                                0000002F
AA                                000000A2
AA2                               000000A6
ABDEN                             00000000
ABDOVF                            00000007
ACKDT                             00000005
ACKEN                             00000004
ACKSTAT                           00000006
ADCON0                            0000001F
ADCON1                            0000009F
ADCS0                             00000006
ADCS1                             00000007
ADDEN                             00000003
ADFM                              00000007
ADIE                              00000006
ADIF                              00000006
ADON                              00000000
ADRESH                            0000001E
ADRESL                            0000009E
ANS0                              00000000
ANS1                              00000001
ANS10                             00000002
ANS11                             00000003
ANS12                             00000004
ANS13                             00000005
ANS2                              00000002
ANS3                              00000003
ANS4                              00000004
ANS5                              00000005
ANS6                              00000006
ANS7                              00000007
ANS8                              00000000
ANS9                              00000001
ANSEL                             00000188
ANSELH                            00000189
BANDERA                           00000004
BANDERA1                          00000024
BANDERA2                          00000025
BANDERAS                          00000057
BAUDCTL                           00000187
BCLIE                             00000003
BCLIF                             00000003
BF                                00000000
BRG0                              00000000
BRG1                              00000001
BRG10                             00000002
BRG11                             00000003
BRG12                             00000004
BRG13                             00000005
BRG14                             00000006
BRG15                             00000007
BRG16                             00000003
MPASM 5.77                    PROYECTO_3.ASM   11-27-2020  5:47:12         PAGE 16


SYMBOL TABLE
  LABEL                             VALUE 

BRG2                              00000002
BRG3                              00000003
BRG4                              00000004
BRG5                              00000005
BRG6                              00000006
BRG7                              00000007
BRG8                              00000000
BRG9                              00000001
BRGH                              00000002
C                                 00000000
C1CH0                             00000000
C1CH1                             00000001
C1IE                              00000005
C1IF                              00000005
C1OE                              00000005
C1ON                              00000007
C1OUT                             00000006
C1POL                             00000004
C1R                               00000002
C1RSEL                            00000005
C1SEN                             00000005
C2CH0                             00000000
C2CH1                             00000001
C2IE                              00000006
C2IF                              00000006
C2OE                              00000005
C2ON                              00000007
C2OUT                             00000006
C2POL                             00000004
C2R                               00000002
C2REN                             00000004
C2RSEL                            00000004
C2SYNC                            00000000
CCP1CON                           00000017
CCP1IE                            00000002
CCP1IF                            00000002
CCP1M0                            00000000
CCP1M1                            00000001
CCP1M2                            00000002
CCP1M3                            00000003
CCP1X                             00000005
CCP1Y                             00000004
CCP2CON                           0000001D
CCP2IE                            00000000
CCP2IF                            00000000
CCP2M0                            00000000
CCP2M1                            00000001
CCP2M2                            00000002
CCP2M3                            00000003
CCP2X                             00000005
CCP2Y                             00000004
CCPR1                             00000015
CCPR1H                            00000016
MPASM 5.77                    PROYECTO_3.ASM   11-27-2020  5:47:12         PAGE 17


SYMBOL TABLE
  LABEL                             VALUE 

CCPR1L                            00000015
CCPR2                             0000001B
CCPR2H                            0000001C
CCPR2L                            0000001B
CHS0                              00000002
CHS1                              00000003
CHS2                              00000004
CHS3                              00000005
CKE                               00000006
CKP                               00000004
CM1CON0                           00000107
CM2CON0                           00000108
CM2CON1                           00000109
CONFIG1                           0000012D
CONFIG2                           00000133
CONFIG_ADC                        00000100
CONFIG_INTERRUPT                  00000108
CONFIG_IO                         000000E1
CONFIG_OSC                        000000CF
CONFIG_SERIAL                     00000115
CONFIG_TMR0                       000000D4
CONTADOR                          0000000D
CONTADOR2                         0000001F
CONTADOR3                         00000020
COSO                              0000000C
COSO1                             00000057
COSO2                             0000007A
COSO_ADC                          0000006F
COSO_RX                           00000036
COSO_TMR0                         0000004F
COSO_TX                           00000015
CREN                              00000004
CSRC                              00000007
D                                 00000005
DATA_ADDRESS                      00000005
DC                                00000001
DC1B0                             00000004
DC1B1                             00000005
DC2B0                             00000004
DC2B1                             00000005
DELAY_1                           0000012B
DELAY_2                           00000131
D_A                               00000005
D_NOT_A                           00000005
ECCPAS                            0000009C
ECCPAS0                           00000004
ECCPAS1                           00000005
ECCPAS2                           00000006
ECCPASE                           00000007
EEADR                             0000010D
EEADRH                            0000010F
EECON1                            0000018C
EECON2                            0000018D
MPASM 5.77                    PROYECTO_3.ASM   11-27-2020  5:47:12         PAGE 18


SYMBOL TABLE
  LABEL                             VALUE 

EEDAT                             0000010C
EEDATA                            0000010C
EEDATH                            0000010E
EEIE                              00000004
EEIF                              00000004
EEPGD                             00000007
ESCRITURA                         00000081
F                                 00000001
FERR                              00000002
FSR                               00000004
FVREN                             00000000
GCEN                              00000007
GIE                               00000007
GO                                00000001
GO_DONE                           00000001
GO_NOT_DONE                       00000001
HTS                               00000002
I2C_DATA                          00000005
I2C_READ                          00000002
I2C_START                         00000003
I2C_STOP                          00000004
INC_MODO                          0000009D
INDF                              00000000
INTCON                            0000000B
INTE                              00000004
INTEDG                            00000006
INTF                              00000001
IOCB                              00000096
IOCB0                             00000000
IOCB1                             00000001
IOCB2                             00000002
IOCB3                             00000003
IOCB4                             00000004
IOCB5                             00000005
IOCB6                             00000006
IOCB7                             00000007
IRCF0                             00000004
IRCF1                             00000005
IRCF2                             00000006
IRP                               00000007
ISR                               00000008
LEER                              0000005C
LEER2                             0000006E
LOOP                              00000009
LTS                               00000001
MC1OUT                            00000007
MC2OUT                            00000006
MODO                              00000007
MODO1                             00000053
MODO2                             0000004D
MODO3                             00000018
MSK                               00000093
MSK0                              00000000
MPASM 5.77                    PROYECTO_3.ASM   11-27-2020  5:47:12         PAGE 19


SYMBOL TABLE
  LABEL                             VALUE 

MSK1                              00000001
MSK2                              00000002
MSK3                              00000003
MSK4                              00000004
MSK5                              00000005
MSK6                              00000006
MSK7                              00000007
NADA                              0000000B
NOT_A                             00000005
NOT_ADDRESS                       00000005
NOT_BO                            00000000
NOT_BOR                           00000000
NOT_DONE                          00000001
NOT_PD                            00000003
NOT_POR                           00000001
NOT_RBPU                          00000007
NOT_RC8                           00000006
NOT_T1SYNC                        00000002
NOT_TO                            00000004
NOT_TX8                           00000006
NOT_W                             00000002
NOT_WRITE                         00000002
OERR                              00000001
OPTION_REG                        00000081
OSCCON                            0000008F
OSCTUNE                           00000090
OSFIE                             00000007
OSFIF                             00000007
OSTS                              00000003
P                                 00000004
P1M0                              00000006
P1M1                              00000007
PCL                               00000002
PCLATH                            0000000A
PCON                              0000008E
PDC0                              00000000
PDC1                              00000001
PDC2                              00000002
PDC3                              00000003
PDC4                              00000004
PDC5                              00000005
PDC6                              00000006
PEIE                              00000006
PEN                               00000002
PIE1                              0000008C
PIE2                              0000008D
PIR1                              0000000C
PIR2                              0000000D
POP                               00000010
PORTA                             00000005
PORTB                             00000006
PORTC                             00000007
PORTD                             00000008
MPASM 5.77                    PROYECTO_3.ASM   11-27-2020  5:47:12         PAGE 20


SYMBOL TABLE
  LABEL                             VALUE 

PORTE                             00000009
PR2                               00000092
PRIMERO                           00000019
PRSEN                             00000007
PRUEBA                            00000022
PRUEBA2                           00000023
PS0                               00000000
PS1                               00000001
PS2                               00000002
PSA                               00000003
PSSAC0                            00000002
PSSAC1                            00000003
PSSBD0                            00000000
PSSBD1                            00000001
PSTRCON                           0000009D
PULSR                             00000002
PULSS                             00000003
PUSH                              00000004
PWM1CON                           0000009B
R                                 00000002
RA0                               00000000
RA1                               00000001
RA2                               00000002
RA3                               00000003
RA4                               00000004
RA5                               00000005
RA6                               00000006
RA7                               00000007
RB0                               00000000
RB1                               00000001
RB2                               00000002
RB3                               00000003
RB4                               00000004
RB5                               00000005
RB6                               00000006
RB7                               00000007
RBIE                              00000003
RBIF                              00000000
RC0                               00000000
RC1                               00000001
RC2                               00000002
RC3                               00000003
RC4                               00000004
RC5                               00000005
RC6                               00000006
RC7                               00000007
RC8_9                             00000006
RC9                               00000006
RCD8                              00000000
RCEN                              00000003
RCIDL                             00000006
RCIE                              00000005
RCIF                              00000005
MPASM 5.77                    PROYECTO_3.ASM   11-27-2020  5:47:12         PAGE 21


SYMBOL TABLE
  LABEL                             VALUE 

RCREG                             0000001A
RCSTA                             00000018
RD                                00000000
RD0                               00000000
RD1                               00000001
RD2                               00000002
RD3                               00000003
RD4                               00000004
RD5                               00000005
RD6                               00000006
RD7                               00000007
RE0                               00000000
RE1                               00000001
RE2                               00000002
RE3                               00000003
READ_WRITE                        00000002
RECIBIDO                          00000011
RP0                               00000005
RP1                               00000006
RSEN                              00000001
RX9                               00000006
RX9D                              00000000
R_NOT_W                           00000002
R_W                               00000002
S                                 00000003
SBOREN                            00000004
SCKP                              00000004
SCS                               00000000
SE1                               00000021
SE2                               0000002C
SE3                               00000037
SE4                               00000042
SEGUNDO                           00000027
SEN                               00000000
SENAL                             00000021
SENAL3                            00000010
SENDB                             00000003
SERVO1                            00000005
SERVO11                           0000001B
SERVO12                           0000001C
SERVO1_EEPROM                     0000000A
SERVO1_R                          00000017
SERVO1_T                          00000019
SERVO1_TX                         00000012
SERVO2                            00000006
SERVO21                           0000001D
SERVO22                           0000001E
SERVO2_EEPROM                     00000009
SERVO2_R                          00000018
SERVO2_T                          0000001A
SERVO2_TX                         00000013
SERVO3                            0000000E
SERVO4                            0000000F
MPASM 5.77                    PROYECTO_3.ASM   11-27-2020  5:47:12         PAGE 22


SYMBOL TABLE
  LABEL                             VALUE 

SERVO_T1                          00000015
SERVO_T2                          00000014
SMP                               00000007
SPBRG                             00000099
SPBRGH                            0000009A
SPEN                              00000007
SR0                               00000006
SR1                               00000007
SRCON                             00000185
SREN                              00000005
SSPADD                            00000093
SSPBUF                            00000013
SSPCON                            00000014
SSPCON2                           00000091
SSPEN                             00000005
SSPIE                             00000003
SSPIF                             00000003
SSPM0                             00000000
SSPM1                             00000001
SSPM2                             00000002
SSPM3                             00000003
SSPMSK                            00000093
SSPOV                             00000006
SSPSTAT                           00000094
START                             00000000
STATUS                            00000003
STRA                              00000000
STRB                              00000001
STRC                              00000002
STRD                              00000003
STRSYNC                           00000004
SWDTEN                            00000000
SYNC                              00000004
T                                 0000006B
T0CS                              00000005
T0IE                              00000005
T0IF                              00000002
T0SE                              00000004
T1CKPS0                           00000004
T1CKPS1                           00000005
T1CON                             00000010
T1GINV                            00000007
T1GIV                             00000007
T1GSS                             00000001
T1INSYNC                          00000002
T1OSCEN                           00000003
T1SYNC                            00000002
T2CKPS0                           00000000
T2CKPS1                           00000001
T2CON                             00000012
TERMINAR                          00000082
TERMINARR                         00000035
TIEMPOO                           00000008
MPASM 5.77                    PROYECTO_3.ASM   11-27-2020  5:47:12         PAGE 23


SYMBOL TABLE
  LABEL                             VALUE 

TIEMPO_1                          00000000
TIEMPO_2                          00000001
TMR0                              00000001
TMR0IE                            00000005
TMR0IF                            00000002
TMR1                              0000000E
TMR1CS                            00000001
TMR1GE                            00000006
TMR1H                             0000000F
TMR1IE                            00000000
TMR1IF                            00000000
TMR1L                             0000000E
TMR1ON                            00000000
TMR2                              00000011
TMR2IE                            00000001
TMR2IF                            00000001
TMR2ON                            00000002
TOUTPS0                           00000003
TOUTPS1                           00000004
TOUTPS2                           00000005
TOUTPS3                           00000006
TRISA                             00000085
TRISA0                            00000000
TRISA1                            00000001
TRISA2                            00000002
TRISA3                            00000003
TRISA4                            00000004
TRISA5                            00000005
TRISA6                            00000006
TRISA7                            00000007
TRISB                             00000086
TRISB0                            00000000
TRISB1                            00000001
TRISB2                            00000002
TRISB3                            00000003
TRISB4                            00000004
TRISB5                            00000005
TRISB6                            00000006
TRISB7                            00000007
TRISC                             00000087
TRISC0                            00000000
TRISC1                            00000001
TRISC2                            00000002
TRISC3                            00000003
TRISC4                            00000004
TRISC5                            00000005
TRISC6                            00000006
TRISC7                            00000007
TRISD                             00000088
TRISD0                            00000000
TRISD1                            00000001
TRISD2                            00000002
TRISD3                            00000003
MPASM 5.77                    PROYECTO_3.ASM   11-27-2020  5:47:12         PAGE 24


SYMBOL TABLE
  LABEL                             VALUE 

TRISD4                            00000004
TRISD5                            00000005
TRISD6                            00000006
TRISD7                            00000007
TRISE                             00000089
TRISE0                            00000000
TRISE1                            00000001
TRISE2                            00000002
TRISE3                            00000003
TRMT                              00000001
TUN0                              00000000
TUN1                              00000001
TUN2                              00000002
TUN3                              00000003
TUN4                              00000004
TX8_9                             00000006
TX9                               00000006
TX9D                              00000000
TXD8                              00000000
TXEN                              00000005
TXIE                              00000004
TXIF                              00000004
TXREG                             00000019
TXSTA                             00000098
TX_B                              00000016
UA                                00000001
UGHHHHHH                          000000AF
ULPWUE                            00000005
ULPWUIE                           00000002
ULPWUIF                           00000002
VAR_STATUS                        00000003
VCFG0                             00000004
VCFG1                             00000005
VR0                               00000000
VR1                               00000001
VR2                               00000002
VR3                               00000003
VRCON                             00000097
VREN                              00000007
VROE                              00000006
VRR                               00000005
VRSS                              00000004
W                                 00000000
WCOL                              00000007
WDTCON                            00000105
WDTPS0                            00000001
WDTPS1                            00000002
WDTPS2                            00000003
WDTPS3                            00000004
WPUB                              00000095
WPUB0                             00000000
WPUB1                             00000001
WPUB2                             00000002
MPASM 5.77                    PROYECTO_3.ASM   11-27-2020  5:47:12         PAGE 25


SYMBOL TABLE
  LABEL                             VALUE 

WPUB3                             00000003
WPUB4                             00000004
WPUB5                             00000005
WPUB6                             00000006
WPUB7                             00000007
WR                                00000001
WREN                              00000002
WRERR                             00000003
WUE                               00000001
W_TEMP                            00000002
Z                                 00000002
_BOR21V                           00003EFF
_BOR40V                           00003FFF
_BOR4V_BOR21V                     00003EFF
_BOR4V_BOR40V                     00003FFF
_BOREN_NSLEEP                     00003EFF
_BOREN_OFF                        00003CFF
_BOREN_ON                         00003FFF
_BOREN_SBODEN                     00003DFF
_BOR_NSLEEP                       00003EFF
_BOR_OFF                          00003CFF
_BOR_ON                           00003FFF
_BOR_SBODEN                       00003DFF
_CONFIG1                          00002007
_CONFIG2                          00002008
_CPD_OFF                          00003FFF
_CPD_ON                           00003F7F
_CP_OFF                           00003FFF
_CP_ON                            00003FBF
_DEBUG_OFF                        00003FFF
_DEBUG_ON                         00001FFF
_DEVID1                           00002006
_EC_OSC                           00003FFB
_EXTRC                            00003FFF
_EXTRCIO                          00003FFE
_EXTRC_OSC_CLKOUT                 00003FFF
_EXTRC_OSC_NOCLKOUT               00003FFE
_FCMEN_OFF                        000037FF
_FCMEN_ON                         00003FFF
_FOSC_EC                          00003FFB
_FOSC_EXTRC_CLKOUT                00003FFF
_FOSC_EXTRC_NOCLKOUT              00003FFE
_FOSC_HS                          00003FFA
_FOSC_INTRC_CLKOUT                00003FFD
_FOSC_INTRC_NOCLKOUT              00003FFC
_FOSC_LP                          00003FF8
_FOSC_XT                          00003FF9
_HS_OSC                           00003FFA
_IDLOC0                           00002000
_IDLOC1                           00002001
_IDLOC2                           00002002
_IDLOC3                           00002003
_IESO_OFF                         00003BFF
MPASM 5.77                    PROYECTO_3.ASM   11-27-2020  5:47:12         PAGE 26


SYMBOL TABLE
  LABEL                             VALUE 

_IESO_ON                          00003FFF
_INTOSC                           00003FFD
_INTOSCIO                         00003FFC
_INTRC_OSC_CLKOUT                 00003FFD
_INTRC_OSC_NOCLKOUT               00003FFC
_LP_OSC                           00003FF8
_LVP_OFF                          00002FFF
_LVP_ON                           00003FFF
_MCLRE_OFF                        00003FDF
_MCLRE_ON                         00003FFF
_PWRTE_OFF                        00003FFF
_PWRTE_ON                         00003FEF
_WDTE_OFF                         00003FF7
_WDTE_ON                          00003FFF
_WDT_OFF                          00003FF7
_WDT_ON                           00003FFF
_WRT_1FOURTH                      00003BFF
_WRT_256                          00003DFF
_WRT_HALF                         000039FF
_WRT_OFF                          00003FFF
_XT_OSC                           00003FF9
__16F887                          00000001

Errors   :     0
Warnings :    16 reported,     0 suppressed
Messages :    52 reported,     0 suppressed

